target datalayout = "e-m:e-p270:32:32-p271:32:32-p272:64:64-i64:64-i128:128-f80:128-n8:16:32:64-S128"
target triple = "x86_64-pc-linux-gnu"

%class.QString = type { %struct.QArrayDataPointer.0 }
%struct.QArrayDataPointer.0 = type { ptr, ptr, i64 }
%"class.QMetaObject::Connection" = type { ptr }
%class.QList.1 = type { %struct.QArrayDataPointer.4 }
%struct.QArrayDataPointer.4 = type { ptr, ptr, i64 }
%class.WiresharkMainWindow = type { %class.MainWindow, ptr, %class.CaptureFile, %class.QFont, %class.QMap, ptr, ptr, ptr, ptr, ptr, ptr, %class.QList.9, %class.QPointer, %class.QMap.13, %class.QMap.15, i8, %class.QString, i8, i8, i8, %class.QPoint, %class.QPointer.17 }
%class.MainWindow = type { %class.QMainWindow, %class.QList.1, ptr, ptr, %class.QSplitter, %class.QSplitter, %class.QWidget, %class.QList.5, ptr, ptr, ptr, ptr, ptr, ptr }
%class.QMainWindow = type { %class.QWidget }
%class.QSplitter = type { %class.QFrame }
%class.QFrame = type { %class.QWidget }
%class.QWidget = type { %class.QObject, %class.QPaintDevice.base, ptr }
%class.QObject = type { ptr, %class.QScopedPointer }
%class.QScopedPointer = type { ptr }
%class.QPaintDevice.base = type <{ ptr, i16 }>
%class.QList.5 = type { %struct.QArrayDataPointer.8 }
%struct.QArrayDataPointer.8 = type { ptr, ptr, i64 }
%class.CaptureFile = type { %class.QObject, ptr, %class.QString }
%class.QFont = type <{ %class.QExplicitlySharedDataPointer, i32, [4 x i8] }>
%class.QExplicitlySharedDataPointer = type { ptr }
%class.QMap = type { %"class.QtPrivate::QExplicitlySharedDataPointerV2" }
%"class.QtPrivate::QExplicitlySharedDataPointerV2" = type { ptr }
%class.QList.9 = type { %struct.QArrayDataPointer.12 }
%struct.QArrayDataPointer.12 = type { ptr, ptr, i64 }
%class.QPointer = type { %class.QWeakPointer }
%class.QWeakPointer = type { ptr, ptr }
%class.QMap.13 = type { %"class.QtPrivate::QExplicitlySharedDataPointerV2.14" }
%"class.QtPrivate::QExplicitlySharedDataPointerV2.14" = type { ptr }
%class.QMap.15 = type { %"class.QtPrivate::QExplicitlySharedDataPointerV2.16" }
%"class.QtPrivate::QExplicitlySharedDataPointerV2.16" = type { ptr }
%class.QPoint = type { i32, i32 }
%class.QPointer.17 = type { %class.QWeakPointer }
%class.Ui_WiresharkMainWindow = type { ptr, ptr, ptr, ptr, ptr, ptr, ptr, ptr, ptr, ptr, ptr, ptr, ptr, ptr, ptr, ptr, ptr, ptr, ptr, ptr, ptr, ptr, ptr, ptr, ptr, ptr, ptr, ptr, ptr, ptr, ptr, ptr, ptr, ptr, ptr, ptr, ptr, ptr, ptr, ptr, ptr, ptr, ptr, ptr, ptr, ptr, ptr, ptr, ptr, ptr, ptr, ptr, ptr, ptr, ptr, ptr, ptr, ptr, ptr, ptr, ptr, ptr, ptr, ptr, ptr, ptr, ptr, ptr, ptr, ptr, ptr, ptr, ptr, ptr, ptr, ptr, ptr, ptr, ptr, ptr, ptr, ptr, ptr, ptr, ptr, ptr, ptr, ptr, ptr, ptr, ptr, ptr, ptr, ptr, ptr, ptr, ptr, ptr, ptr, ptr, ptr, ptr, ptr, ptr, ptr, ptr, ptr, ptr, ptr, ptr, ptr, ptr, ptr, ptr, ptr, ptr, ptr, ptr, ptr, ptr, ptr, ptr, ptr, ptr, ptr, ptr, ptr, ptr, ptr, ptr, ptr, ptr, ptr, ptr, ptr, ptr, ptr, ptr, ptr, ptr, ptr, ptr, ptr, ptr, ptr, ptr, ptr, ptr, ptr, ptr, ptr, ptr, ptr, ptr, ptr, ptr, ptr, ptr, ptr, ptr, ptr, ptr, ptr, ptr, ptr, ptr, ptr, ptr, ptr, ptr, ptr, ptr, ptr, ptr, ptr, ptr, ptr, ptr, ptr, ptr, ptr, ptr, ptr, ptr, ptr, ptr, ptr, ptr, ptr, ptr, ptr, ptr, ptr, ptr, ptr, ptr, ptr, ptr, ptr, ptr, ptr, ptr, ptr, ptr, ptr, ptr, ptr, ptr, ptr, ptr, ptr, ptr, ptr, ptr, ptr, ptr, ptr, ptr, ptr, ptr, ptr, ptr, ptr, ptr, ptr, ptr, ptr, ptr, ptr, ptr, ptr, ptr, ptr, ptr, ptr, ptr, ptr, ptr, ptr, ptr, ptr, ptr, ptr, ptr, ptr, ptr, ptr, ptr, ptr, ptr, ptr, ptr, ptr, ptr, ptr, ptr, ptr, ptr, ptr, ptr, ptr, ptr, ptr, ptr, ptr, ptr, ptr, ptr, ptr, ptr, ptr, ptr, ptr, ptr, ptr, ptr, ptr, ptr, ptr, ptr, ptr, ptr, ptr, ptr, ptr, ptr, ptr, ptr, ptr, ptr, ptr, ptr, ptr, ptr, ptr, ptr, ptr, ptr, ptr, ptr, ptr, ptr, ptr, ptr, ptr, ptr, ptr, ptr, ptr, ptr, ptr, ptr, ptr, ptr, ptr, ptr, ptr, ptr, ptr, ptr, ptr, ptr }

@.str.42 = private unnamed_addr constant [28 x i8] c"2captureEvent(CaptureEvent)\00", align 1
@.str.153 = private unnamed_addr constant [13 x i8] c"2triggered()\00", align 1
@.str.158 = private unnamed_addr constant [32 x i8] c"1captureFileEvent(CaptureEvent)\00", align 1
@.str.159 = private unnamed_addr constant [21 x i8] c"1applyExportObject()\00", align 1

; Function Attrs: mustprogress uwtable
define noundef zeroext i1 @_ZN19WiresharkMainWindow24addExportObjectsMenuItemEPKvPvS2_(ptr noundef %0, ptr noundef %1, ptr noundef %2) #0 align 2 personality ptr @__gxx_personality_v0 {
  %4 = alloca ptr, align 8
  %5 = alloca ptr, align 8
  %6 = alloca ptr, align 8
  %7 = alloca ptr, align 8
  %8 = alloca ptr, align 8
  %9 = alloca ptr, align 8
  %10 = alloca ptr, align 8
  %11 = alloca i32, align 4
  %12 = alloca %"class.QMetaObject::Connection", align 8
  %13 = alloca %"class.QMetaObject::Connection", align 8
  store ptr %0, ptr %4, align 8
  store ptr %1, ptr %5, align 8
  store ptr %2, ptr %6, align 8
  %14 = load ptr, ptr %5, align 8
  store ptr %14, ptr %7, align 8
  %15 = load ptr, ptr %6, align 8
  store ptr %15, ptr %8, align 8
  %16 = call noalias noundef nonnull ptr @_Znwm(i64 noundef 24) #23
  %17 = load ptr, ptr %8, align 8
  %18 = getelementptr inbounds %class.WiresharkMainWindow, ptr %17, i32 0, i32 1
  %19 = load ptr, ptr %18, align 8
  %20 = getelementptr inbounds %class.Ui_WiresharkMainWindow, ptr %19, i32 0, i32 272
  %21 = load ptr, ptr %20, align 8
  %22 = load ptr, ptr %7, align 8
  invoke void @_ZN18ExportObjectActionC1EP7QObjectP11register_eo(ptr noundef nonnull align 8 dereferenceable(24) %16, ptr noundef %21, ptr noundef %22)
          to label %23 unwind label %36

23:                                               ; preds = %3
  store ptr %16, ptr %9, align 8
  %24 = load ptr, ptr %8, align 8
  %25 = getelementptr inbounds %class.WiresharkMainWindow, ptr %24, i32 0, i32 1
  %26 = load ptr, ptr %25, align 8
  %27 = getelementptr inbounds %class.Ui_WiresharkMainWindow, ptr %26, i32 0, i32 272
  %28 = load ptr, ptr %27, align 8
  %29 = load ptr, ptr %9, align 8
  call void @_ZN7QWidget9addActionEP7QAction(ptr noundef nonnull align 8 dereferenceable(40) %28, ptr noundef %29)
  %30 = load ptr, ptr %9, align 8
  call void @_ZN7QAction10setEnabledEb(ptr noundef nonnull align 8 dereferenceable(16) %30, i1 noundef zeroext false)
  %31 = load ptr, ptr %8, align 8
  %32 = getelementptr inbounds %class.WiresharkMainWindow, ptr %31, i32 0, i32 2
  %33 = load ptr, ptr %9, align 8
  call void @_ZN7QObject7connectEPKS_PKcS1_S3_N2Qt14ConnectionTypeE(ptr dead_on_unwind writable sret(%"class.QMetaObject::Connection") align 8 %12, ptr noundef %32, ptr noundef @.str.42, ptr noundef %33, ptr noundef @.str.158, i32 noundef 0)
  call void @_ZN11QMetaObject10ConnectionD1Ev(ptr noundef nonnull align 8 dereferenceable(8) %12) #20
  %34 = load ptr, ptr %9, align 8
  %35 = load ptr, ptr %8, align 8
  call void @_ZN7QObject7connectEPKS_PKcS1_S3_N2Qt14ConnectionTypeE(ptr dead_on_unwind writable sret(%"class.QMetaObject::Connection") align 8 %13, ptr noundef %34, ptr noundef @.str.153, ptr noundef %35, ptr noundef @.str.159, i32 noundef 0)
  call void @_ZN11QMetaObject10ConnectionD1Ev(ptr noundef nonnull align 8 dereferenceable(8) %13) #20
  ret i1 false

36:                                               ; preds = %3
  %37 = landingpad { ptr, i32 }
          cleanup
  %38 = extractvalue { ptr, i32 } %37, 0
  store ptr %38, ptr %10, align 8
  %39 = extractvalue { ptr, i32 } %37, 1
  store i32 %39, ptr %11, align 4
  call void @_ZdlPv(ptr noundef %16) #24
  br label %40

40:                                               ; preds = %36
  %41 = load ptr, ptr %10, align 8
  %42 = load i32, ptr %11, align 4
  %43 = insertvalue { ptr, i32 } poison, ptr %41, 0
  %44 = insertvalue { ptr, i32 } %43, i32 %42, 1
  resume { ptr, i32 } %44
}