; Function Attrs: mustprogress uwtable
define noundef zeroext i1 @_ZN19WiresharkMainWindow24addExportObjectsMenuItemEPKvPvS2_(ptr nocapture readnone %0, ptr noundef %1, ptr noundef %2) #0 align 2 personality ptr @__gxx_personality_v0 {
  %4 = alloca %"class.QMetaObject::Connection", align 8
  %5 = alloca %"class.QMetaObject::Connection", align 8
  %6 = tail call noalias noundef nonnull dereferenceable(24) ptr @_Znwm(i64 noundef 24) #26
  %7 = getelementptr inbounds i8, ptr %2, i64 272
  %8 = load ptr, ptr %7, align 8
  %9 = getelementptr inbounds i8, ptr %8, i64 2176
  %10 = load ptr, ptr %9, align 8
  invoke void @_ZN18ExportObjectActionC1EP7QObjectP11register_eo(ptr noundef nonnull align 8 dereferenceable(24) %6, ptr noundef %10, ptr noundef %1)
          to label %11 unwind label %16

11:                                               ; preds = %3
  %12 = load ptr, ptr %7, align 8
  %13 = getelementptr inbounds i8, ptr %12, i64 2176
  %14 = load ptr, ptr %13, align 8
  tail call void @_ZN7QWidget9addActionEP7QAction(ptr noundef nonnull align 8 dereferenceable(40) %14, ptr noundef nonnull %6)
  tail call void @_ZN7QAction10setEnabledEb(ptr noundef nonnull align 8 dereferenceable(16) %6, i1 noundef zeroext false)
  %15 = getelementptr inbounds i8, ptr %2, i64 280
  call void @_ZN7QObject7connectEPKS_PKcS1_S3_N2Qt14ConnectionTypeE(ptr dead_on_unwind nonnull writable sret(%"class.QMetaObject::Connection") align 8 %4, ptr noundef nonnull %15, ptr noundef nonnull @.str.42, ptr noundef nonnull %6, ptr noundef nonnull @.str.158, i32 noundef 0)
  call void @_ZN11QMetaObject10ConnectionD1Ev(ptr noundef nonnull align 8 dereferenceable(8) %4) #25
  call void @_ZN7QObject7connectEPKS_PKcS1_S3_N2Qt14ConnectionTypeE(ptr dead_on_unwind nonnull writable sret(%"class.QMetaObject::Connection") align 8 %5, ptr noundef nonnull %6, ptr noundef nonnull @.str.153, ptr noundef nonnull %2, ptr noundef nonnull @.str.159, i32 noundef 0)
  call void @_ZN11QMetaObject10ConnectionD1Ev(ptr noundef nonnull align 8 dereferenceable(8) %5) #25
  ret i1 false

16:                                               ; preds = %3
  %17 = landingpad { ptr, i32 }
          cleanup
  tail call void @_ZdlPv(ptr noundef nonnull %6) #27
  resume { ptr, i32 } %17
}